target datalayout = "e-m:e-p270:32:32-p271:32:32-p272:64:64-i64:64-i128:128-f80:128-n8:16:32:64-S128"
target triple = "x86_64-pc-linux-gnu"

%struct.parser_st_hash_type = type { ptr, ptr }
%struct.parser_st_table = type { i8, i8, i8, i32, ptr, i64, ptr, i64, i64, ptr }
%struct.parser_st_table_entry = type { i64, i64, i64 }

; Function Attrs: inlinehint nounwind sspstrong uwtable
define internal void @set_bin(ptr noundef %0, i32 noundef %1, i64 noundef %2, i64 noundef %3) #3 {
  %5 = alloca ptr, align 8
  %6 = alloca i32, align 4
  %7 = alloca i64, align 8
  %8 = alloca i64, align 8
  store ptr %0, ptr %5, align 8, !tbaa !35
  store i32 %1, ptr %6, align 4, !tbaa !16
  store i64 %2, ptr %7, align 8, !tbaa !14
  store i64 %3, ptr %8, align 8, !tbaa !14
  %9 = load i32, ptr %6, align 4, !tbaa !16
  %10 = icmp eq i32 %9, 0
  br i1 %10, label %11, label %17

11:                                               ; preds = %4
  %12 = load i64, ptr %8, align 8, !tbaa !14
  %13 = trunc i64 %12 to i8
  %14 = load ptr, ptr %5, align 8, !tbaa !35
  %15 = load i64, ptr %7, align 8, !tbaa !14
  %16 = getelementptr i8, ptr %14, i64 %15
  store i8 %13, ptr %16, align 1, !tbaa !46
  br label %42

17:                                               ; preds = %4
  %18 = load i32, ptr %6, align 4, !tbaa !16
  %19 = icmp eq i32 %18, 1
  br i1 %19, label %20, label %26

20:                                               ; preds = %17
  %21 = load i64, ptr %8, align 8, !tbaa !14
  %22 = trunc i64 %21 to i16
  %23 = load ptr, ptr %5, align 8, !tbaa !35
  %24 = load i64, ptr %7, align 8, !tbaa !14
  %25 = getelementptr i16, ptr %23, i64 %24
  store i16 %22, ptr %25, align 2, !tbaa !47
  br label %41

26:                                               ; preds = %17
  %27 = load i32, ptr %6, align 4, !tbaa !16
  %28 = icmp eq i32 %27, 2
  br i1 %28, label %29, label %35

29:                                               ; preds = %26
  %30 = load i64, ptr %8, align 8, !tbaa !14
  %31 = trunc i64 %30 to i32
  %32 = load ptr, ptr %5, align 8, !tbaa !35
  %33 = load i64, ptr %7, align 8, !tbaa !14
  %34 = getelementptr i32, ptr %32, i64 %33
  store i32 %31, ptr %34, align 4, !tbaa !16
  br label %40

35:                                               ; preds = %26
  %36 = load i64, ptr %8, align 8, !tbaa !14
  %37 = load ptr, ptr %5, align 8, !tbaa !35
  %38 = load i64, ptr %7, align 8, !tbaa !14
  %39 = getelementptr i64, ptr %37, i64 %38
  store i64 %36, ptr %39, align 8, !tbaa !14
  br label %40

40:                                               ; preds = %35, %29
  br label %41

41:                                               ; preds = %40, %20
  br label %42

42:                                               ; preds = %41, %11
  ret void
}

; Function Attrs: inlinehint nounwind sspstrong uwtable
define internal i32 @get_size_ind(ptr noundef %0) #3 {
  %2 = alloca ptr, align 8
  store ptr %0, ptr %2, align 8, !tbaa !7
  %3 = load ptr, ptr %2, align 8, !tbaa !7
  %4 = getelementptr inbounds nuw %struct.parser_st_table, ptr %3, i32 0, i32 2
  %5 = load i8, ptr %4, align 2, !tbaa !27
  %6 = zext i8 %5 to i32
  ret i32 %6
}

; Function Attrs: inlinehint nounwind sspstrong uwtable
define internal i64 @find_entry(ptr noundef %0, i64 noundef %1, i64 noundef %2) #3 {
  %4 = alloca i64, align 8
  %5 = alloca ptr, align 8
  %6 = alloca i64, align 8
  %7 = alloca i64, align 8
  %8 = alloca i32, align 4
  %9 = alloca i32, align 4
  %10 = alloca i64, align 8
  %11 = alloca i64, align 8
  %12 = alloca ptr, align 8
  %13 = alloca i32, align 4
  %14 = alloca i32, align 4
  store ptr %0, ptr %5, align 8, !tbaa !7
  store i64 %1, ptr %6, align 8, !tbaa !14
  store i64 %2, ptr %7, align 8, !tbaa !14
  call void @llvm.lifetime.start.p0(i64 4, ptr %8) #14
  call void @llvm.lifetime.start.p0(i64 4, ptr %9) #14
  call void @llvm.lifetime.start.p0(i64 8, ptr %10) #14
  call void @llvm.lifetime.start.p0(i64 8, ptr %11) #14
  call void @llvm.lifetime.start.p0(i64 8, ptr %12) #14
  %15 = load ptr, ptr %5, align 8, !tbaa !7
  %16 = getelementptr inbounds nuw %struct.parser_st_table, ptr %15, i32 0, i32 8
  %17 = load i64, ptr %16, align 8, !tbaa !33
  store i64 %17, ptr %11, align 8, !tbaa !14
  %18 = load ptr, ptr %5, align 8, !tbaa !7
  %19 = getelementptr inbounds nuw %struct.parser_st_table, ptr %18, i32 0, i32 9
  %20 = load ptr, ptr %19, align 8, !tbaa !29
  store ptr %20, ptr %12, align 8, !tbaa !40
  %21 = load ptr, ptr %5, align 8, !tbaa !7
  %22 = getelementptr inbounds nuw %struct.parser_st_table, ptr %21, i32 0, i32 7
  %23 = load i64, ptr %22, align 8, !tbaa !34
  store i64 %23, ptr %10, align 8, !tbaa !14
  br label %24

24:                                               ; preds = %86, %3
  %25 = load i64, ptr %10, align 8, !tbaa !14
  %26 = load i64, ptr %11, align 8, !tbaa !14
  %27 = icmp ult i64 %25, %26
  br i1 %27, label %28, label %89

28:                                               ; preds = %24
  br label %29

29:                                               ; preds = %28
  call void @llvm.lifetime.start.p0(i64 4, ptr %13) #14
  %30 = load ptr, ptr %5, align 8, !tbaa !7
  %31 = getelementptr inbounds nuw %struct.parser_st_table, ptr %30, i32 0, i32 3
  %32 = load i32, ptr %31, align 4, !tbaa !30
  store i32 %32, ptr %13, align 4, !tbaa !16
  %33 = load ptr, ptr %12, align 8, !tbaa !40
  %34 = load i64, ptr %10, align 8, !tbaa !14
  %35 = getelementptr %struct.parser_st_table_entry, ptr %33, i64 %34
  %36 = getelementptr inbounds nuw %struct.parser_st_table_entry, ptr %35, i32 0, i32 0
  %37 = load i64, ptr %36, align 8, !tbaa !41
  %38 = load i64, ptr %6, align 8, !tbaa !14
  %39 = icmp eq i64 %37, %38
  br i1 %39, label %40, label %64

40:                                               ; preds = %29
  %41 = load i64, ptr %7, align 8, !tbaa !14
  %42 = load ptr, ptr %12, align 8, !tbaa !40
  %43 = load i64, ptr %10, align 8, !tbaa !14
  %44 = getelementptr %struct.parser_st_table_entry, ptr %42, i64 %43
  %45 = getelementptr inbounds nuw %struct.parser_st_table_entry, ptr %44, i32 0, i32 1
  %46 = load i64, ptr %45, align 8, !tbaa !42
  %47 = icmp eq i64 %41, %46
  br i1 %47, label %62, label %48

48:                                               ; preds = %40
  %49 = load ptr, ptr %5, align 8, !tbaa !7
  %50 = getelementptr inbounds nuw %struct.parser_st_table, ptr %49, i32 0, i32 4
  %51 = load ptr, ptr %50, align 8, !tbaa !18
  %52 = getelementptr inbounds nuw %struct.parser_st_hash_type, ptr %51, i32 0, i32 0
  %53 = load ptr, ptr %52, align 8, !tbaa !43
  %54 = load i64, ptr %7, align 8, !tbaa !14
  %55 = load ptr, ptr %12, align 8, !tbaa !40
  %56 = load i64, ptr %10, align 8, !tbaa !14
  %57 = getelementptr %struct.parser_st_table_entry, ptr %55, i64 %56
  %58 = getelementptr inbounds nuw %struct.parser_st_table_entry, ptr %57, i32 0, i32 1
  %59 = load i64, ptr %58, align 8, !tbaa !42
  %60 = call i32 %53(i64 noundef %54, i64 noundef %59)
  %61 = icmp eq i32 %60, 0
  br label %62

62:                                               ; preds = %48, %40
  %63 = phi i1 [ true, %40 ], [ %61, %48 ]
  br label %64

64:                                               ; preds = %62, %29
  %65 = phi i1 [ false, %29 ], [ %63, %62 ]
  %66 = zext i1 %65 to i32
  store i32 %66, ptr %8, align 4, !tbaa !16
  %67 = load i32, ptr %13, align 4, !tbaa !16
  %68 = load ptr, ptr %5, align 8, !tbaa !7
  %69 = getelementptr inbounds nuw %struct.parser_st_table, ptr %68, i32 0, i32 3
  %70 = load i32, ptr %69, align 4, !tbaa !30
  %71 = icmp ne i32 %67, %70
  %72 = zext i1 %71 to i32
  store i32 %72, ptr %9, align 4, !tbaa !16
  call void @llvm.lifetime.end.p0(i64 4, ptr %13) #14
  br label %73

73:                                               ; preds = %64
  br label %74

74:                                               ; preds = %73
  %75 = load i32, ptr %9, align 4, !tbaa !16
  %76 = sext i32 %75 to i64
  %77 = call i64 @llvm.expect.i64(i64 %76, i64 0)
  %78 = icmp ne i64 %77, 0
  br i1 %78, label %79, label %80

79:                                               ; preds = %74
  store i64 -2, ptr %4, align 8
  store i32 1, ptr %14, align 4
  br label %90

80:                                               ; preds = %74
  %81 = load i32, ptr %8, align 4, !tbaa !16
  %82 = icmp ne i32 %81, 0
  br i1 %82, label %83, label %85

83:                                               ; preds = %80
  %84 = load i64, ptr %10, align 8, !tbaa !14
  store i64 %84, ptr %4, align 8
  store i32 1, ptr %14, align 4
  br label %90

85:                                               ; preds = %80
  br label %86

86:                                               ; preds = %85
  %87 = load i64, ptr %10, align 8, !tbaa !14
  %88 = add i64 %87, 1
  store i64 %88, ptr %10, align 8, !tbaa !14
  br label %24, !llvm.loop !44

89:                                               ; preds = %24
  store i64 -1, ptr %4, align 8
  store i32 1, ptr %14, align 4
  br label %90

90:                                               ; preds = %89, %83, %79
  call void @llvm.lifetime.end.p0(i64 8, ptr %12) #14
  call void @llvm.lifetime.end.p0(i64 8, ptr %11) #14
  call void @llvm.lifetime.end.p0(i64 8, ptr %10) #14
  call void @llvm.lifetime.end.p0(i64 4, ptr %9) #14
  call void @llvm.lifetime.end.p0(i64 4, ptr %8) #14
  %91 = load i64, ptr %4, align 8
  ret i64 %91
}

; Function Attrs: inlinehint nounwind sspstrong uwtable
define internal i64 @do_hash(i64 noundef %0, ptr noundef %1) #3 {
  %3 = alloca i64, align 8
  %4 = alloca ptr, align 8
  %5 = alloca i64, align 8
  store i64 %0, ptr %3, align 8, !tbaa !14
  store ptr %1, ptr %4, align 8, !tbaa !7
  call void @llvm.lifetime.start.p0(i64 8, ptr %5) #14
  %6 = load ptr, ptr %4, align 8, !tbaa !7
  %7 = getelementptr inbounds nuw %struct.parser_st_table, ptr %6, i32 0, i32 4
  %8 = load ptr, ptr %7, align 8, !tbaa !18
  %9 = getelementptr inbounds nuw %struct.parser_st_hash_type, ptr %8, i32 0, i32 1
  %10 = load ptr, ptr %9, align 8, !tbaa !38
  %11 = load i64, ptr %3, align 8, !tbaa !14
  %12 = call i64 %10(i64 noundef %11)
  store i64 %12, ptr %5, align 8, !tbaa !14
  %13 = load i64, ptr %5, align 8, !tbaa !14
  %14 = icmp eq i64 %13, -1
  br i1 %14, label %15, label %16

15:                                               ; preds = %2
  br label %18

16:                                               ; preds = %2
  %17 = load i64, ptr %5, align 8, !tbaa !14
  br label %18

18:                                               ; preds = %16, %15
  %19 = phi i64 [ 0, %15 ], [ %17, %16 ]
  call void @llvm.lifetime.end.p0(i64 8, ptr %5) #14
  ret i64 %19
}

; Function Attrs: nounwind sspstrong uwtable
define dso_local i32 @rb_parser_st_insert(ptr noundef %0, i64 noundef %1, i64 noundef %2) #0 {
  %4 = alloca i32, align 4
  %5 = alloca ptr, align 8
  %6 = alloca i64, align 8
  %7 = alloca i64, align 8
  %8 = alloca ptr, align 8
  %9 = alloca i64, align 8
  %10 = alloca i64, align 8
  %11 = alloca i64, align 8
  %12 = alloca i64, align 8
  %13 = alloca i32, align 4
  %14 = alloca i32, align 4
  store ptr %0, ptr %5, align 8, !tbaa !7
  store i64 %1, ptr %6, align 8, !tbaa !14
  store i64 %2, ptr %7, align 8, !tbaa !14
  call void @llvm.lifetime.start.p0(i64 8, ptr %8) #14
  call void @llvm.lifetime.start.p0(i64 8, ptr %9) #14
  call void @llvm.lifetime.start.p0(i64 8, ptr %10) #14
  call void @llvm.lifetime.start.p0(i64 8, ptr %11) #14
  call void @llvm.lifetime.start.p0(i64 8, ptr %12) #14
  call void @llvm.lifetime.start.p0(i64 4, ptr %13) #14
  %15 = load i64, ptr %6, align 8, !tbaa !14
  %16 = load ptr, ptr %5, align 8, !tbaa !7
  %17 = call i64 @do_hash(i64 noundef %15, ptr noundef %16)
  store i64 %17, ptr %11, align 8, !tbaa !14
  br label %18

18:                                               ; preds = %58, %35, %3
  %19 = load ptr, ptr %5, align 8, !tbaa !7
  call void @rebuild_table_if_necessary(ptr noundef %19)
  %20 = load ptr, ptr %5, align 8, !tbaa !7
  %21 = getelementptr inbounds nuw %struct.parser_st_table, ptr %20, i32 0, i32 6
  %22 = load ptr, ptr %21, align 8, !tbaa !28
  %23 = icmp eq ptr %22, null
  br i1 %23, label %24, label %48

24:                                               ; preds = %18
  %25 = load ptr, ptr %5, align 8, !tbaa !7
  %26 = load i64, ptr %11, align 8, !tbaa !14
  %27 = load i64, ptr %6, align 8, !tbaa !14
  %28 = call i64 @find_entry(ptr noundef %25, i64 noundef %26, i64 noundef %27)
  store i64 %28, ptr %9, align 8, !tbaa !14
  %29 = load i64, ptr %9, align 8, !tbaa !14
  %30 = icmp eq i64 %29, -2
  %31 = zext i1 %30 to i32
  %32 = sext i32 %31 to i64
  %33 = call i64 @llvm.expect.i64(i64 %32, i64 0)
  %34 = icmp ne i64 %33, 0
  br i1 %34, label %35, label %36

35:                                               ; preds = %24
  br label %18

36:                                               ; preds = %24
  %37 = load i64, ptr %9, align 8, !tbaa !14
  %38 = icmp eq i64 %37, -1
  %39 = zext i1 %38 to i32
  store i32 %39, ptr %13, align 4, !tbaa !16
  %40 = load i32, ptr %13, align 4, !tbaa !16
  %41 = icmp ne i32 %40, 0
  br i1 %41, label %42, label %47

42:                                               ; preds = %36
  %43 = load ptr, ptr %5, align 8, !tbaa !7
  %44 = getelementptr inbounds nuw %struct.parser_st_table, ptr %43, i32 0, i32 5
  %45 = load i64, ptr %44, align 8, !tbaa !32
  %46 = add i64 %45, 1
  store i64 %46, ptr %44, align 8, !tbaa !32
  br label %47

47:                                               ; preds = %42, %36
  store i64 -1, ptr %12, align 8, !tbaa !14
  br label %65

48:                                               ; preds = %18
  %49 = load ptr, ptr %5, align 8, !tbaa !7
  %50 = load i64, ptr %6, align 8, !tbaa !14
  %51 = call i64 @find_table_bin_ptr_and_reserve(ptr noundef %49, ptr noundef %11, i64 noundef %50, ptr noundef %12)
  store i64 %51, ptr %9, align 8, !tbaa !14
  %52 = load i64, ptr %9, align 8, !tbaa !14
  %53 = icmp eq i64 %52, -2
  %54 = zext i1 %53 to i32
  %55 = sext i32 %54 to i64
  %56 = call i64 @llvm.expect.i64(i64 %55, i64 0)
  %57 = icmp ne i64 %56, 0
  br i1 %57, label %58, label %59

58:                                               ; preds = %48
  br label %18

59:                                               ; preds = %48
  %60 = load i64, ptr %9, align 8, !tbaa !14
  %61 = icmp eq i64 %60, -1
  %62 = zext i1 %61 to i32
  store i32 %62, ptr %13, align 4, !tbaa !16
  %63 = load i64, ptr %9, align 8, !tbaa !14
  %64 = sub i64 %63, 2
  store i64 %64, ptr %9, align 8, !tbaa !14
  br label %65

65:                                               ; preds = %59, %47
  %66 = load i32, ptr %13, align 4, !tbaa !16
  %67 = icmp ne i32 %66, 0
  br i1 %67, label %68, label %99

68:                                               ; preds = %65
  %69 = load ptr, ptr %5, align 8, !tbaa !7
  %70 = getelementptr inbounds nuw %struct.parser_st_table, ptr %69, i32 0, i32 8
  %71 = load i64, ptr %70, align 8, !tbaa !33
  %72 = add i64 %71, 1
  store i64 %72, ptr %70, align 8, !tbaa !33
  store i64 %71, ptr %10, align 8, !tbaa !14
  %73 = load ptr, ptr %5, align 8, !tbaa !7
  %74 = getelementptr inbounds nuw %struct.parser_st_table, ptr %73, i32 0, i32 9
  %75 = load ptr, ptr %74, align 8, !tbaa !29
  %76 = load i64, ptr %10, align 8, !tbaa !14
  %77 = getelementptr %struct.parser_st_table_entry, ptr %75, i64 %76
  store ptr %77, ptr %8, align 8, !tbaa !40
  %78 = load i64, ptr %11, align 8, !tbaa !14
  %79 = load ptr, ptr %8, align 8, !tbaa !40
  %80 = getelementptr inbounds nuw %struct.parser_st_table_entry, ptr %79, i32 0, i32 0
  store i64 %78, ptr %80, align 8, !tbaa !41
  %81 = load i64, ptr %6, align 8, !tbaa !14
  %82 = load ptr, ptr %8, align 8, !tbaa !40
  %83 = getelementptr inbounds nuw %struct.parser_st_table_entry, ptr %82, i32 0, i32 1
  store i64 %81, ptr %83, align 8, !tbaa !42
  %84 = load i64, ptr %7, align 8, !tbaa !14
  %85 = load ptr, ptr %8, align 8, !tbaa !40
  %86 = getelementptr inbounds nuw %struct.parser_st_table_entry, ptr %85, i32 0, i32 2
  store i64 %84, ptr %86, align 8, !tbaa !36
  %87 = load i64, ptr %12, align 8, !tbaa !14
  %88 = icmp ne i64 %87, -1
  br i1 %88, label %89, label %98

89:                                               ; preds = %68
  %90 = load ptr, ptr %5, align 8, !tbaa !7
  %91 = getelementptr inbounds nuw %struct.parser_st_table, ptr %90, i32 0, i32 6
  %92 = load ptr, ptr %91, align 8, !tbaa !28
  %93 = load ptr, ptr %5, align 8, !tbaa !7
  %94 = call i32 @get_size_ind(ptr noundef %93)
  %95 = load i64, ptr %12, align 8, !tbaa !14
  %96 = load i64, ptr %10, align 8, !tbaa !14
  %97 = add i64 %96, 2
  call void @set_bin(ptr noundef %92, i32 noundef %94, i64 noundef %95, i64 noundef %97)
  br label %98

98:                                               ; preds = %89, %68
  store i32 0, ptr %4, align 4
  store i32 1, ptr %14, align 4
  br label %107

99:                                               ; preds = %65
  %100 = load i64, ptr %7, align 8, !tbaa !14
  %101 = load ptr, ptr %5, align 8, !tbaa !7
  %102 = getelementptr inbounds nuw %struct.parser_st_table, ptr %101, i32 0, i32 9
  %103 = load ptr, ptr %102, align 8, !tbaa !29
  %104 = load i64, ptr %9, align 8, !tbaa !14
  %105 = getelementptr %struct.parser_st_table_entry, ptr %103, i64 %104
  %106 = getelementptr inbounds nuw %struct.parser_st_table_entry, ptr %105, i32 0, i32 2
  store i64 %100, ptr %106, align 8, !tbaa !36
  store i32 1, ptr %4, align 4
  store i32 1, ptr %14, align 4
  br label %107

107:                                              ; preds = %99, %98
  call void @llvm.lifetime.end.p0(i64 4, ptr %13) #14
  call void @llvm.lifetime.end.p0(i64 8, ptr %12) #14
  call void @llvm.lifetime.end.p0(i64 8, ptr %11) #14
  call void @llvm.lifetime.end.p0(i64 8, ptr %10) #14
  call void @llvm.lifetime.end.p0(i64 8, ptr %9) #14
  call void @llvm.lifetime.end.p0(i64 8, ptr %8) #14
  %108 = load i32, ptr %4, align 4
  ret i32 %108
}