; Function Attrs: nounwind sspstrong uwtable
define dso_local range(i32 0, 2) i32 @rb_parser_st_insert(ptr noundef captures(none) %0, i64 noundef %1, i64 noundef %2) local_unnamed_addr #0 {
  %4 = alloca i64, align 8
  call void @llvm.lifetime.start.p0(i64 8, ptr nonnull %4) #25
  %5 = getelementptr i8, ptr %0, i64 8
  %.val = load ptr, ptr %5, align 8, !tbaa !7
  %6 = getelementptr i8, ptr %.val, i64 8
  %.val.val = load ptr, ptr %6, align 8, !tbaa !28
  %7 = tail call i64 %.val.val(i64 noundef %1) #25
  %8 = icmp eq i64 %7, -1
  %9 = select i1 %8, i64 0, i64 %7
  %10 = getelementptr inbounds nuw i8, ptr %0, i64 24
  %11 = getelementptr inbounds nuw i8, ptr %0, i64 40
  %12 = getelementptr inbounds nuw i8, ptr %0, i64 48
  %13 = getelementptr inbounds nuw i8, ptr %0, i64 32
  %14 = getelementptr inbounds nuw i8, ptr %0, i64 4
  br label %.backedge

.backedge:                                        ; preds = %.backedge.backedge, %3
  tail call fastcc void @rebuild_table_if_necessary(ptr noundef %0)
  %15 = load ptr, ptr %10, align 8, !tbaa !23
  %16 = icmp eq ptr %15, null
  br i1 %16, label %17, label %45

17:                                               ; preds = %.backedge
  %18 = load i64, ptr %11, align 8, !tbaa !30
  %19 = load ptr, ptr %12, align 8, !tbaa !25
  %20 = load i64, ptr %13, align 8, !tbaa !31
  %21 = icmp ult i64 %20, %18
  br i1 %21, label %.lr.ph.i, label %.thread45

.lr.ph.i:                                         ; preds = %17
  %.pre.i = load i32, ptr %14, align 4, !tbaa !27
  br label %22

22:                                               ; preds = %40, %.lr.ph.i
  %23 = phi i32 [ %.pre.i, %.lr.ph.i ], [ %37, %40 ]
  %.02233.i = phi i64 [ %20, %.lr.ph.i ], [ %41, %40 ]
  %24 = getelementptr %struct.parser_st_table_entry, ptr %19, i64 %.02233.i
  %25 = load i64, ptr %24, align 8, !tbaa !32
  %26 = icmp eq i64 %25, %9
  br i1 %26, label %27, label %36

27:                                               ; preds = %22
  %28 = getelementptr inbounds nuw i8, ptr %24, i64 8
  %29 = load i64, ptr %28, align 8, !tbaa !34
  %30 = icmp eq i64 %1, %29
  br i1 %30, label %.thread.i, label %31

.thread.i:                                        ; preds = %27
  %.not25.not.i = icmp eq i32 %.pre.i, %23
  br i1 %.not25.not.i, label %find_entry.exit, label %.backedge.backedge, !prof !35

31:                                               ; preds = %27
  %32 = load ptr, ptr %5, align 8, !tbaa !7
  %33 = load ptr, ptr %32, align 8, !tbaa !36
  %34 = tail call i32 %33(i64 noundef %1, i64 noundef %29) #25
  %35 = icmp eq i32 %34, 0
  %.pre39.i = load i32, ptr %14, align 4, !tbaa !27
  br label %36

36:                                               ; preds = %31, %22
  %37 = phi i32 [ %23, %22 ], [ %.pre39.i, %31 ]
  %38 = phi i32 [ %.pre.i, %22 ], [ %.pre39.i, %31 ]
  %39 = phi i1 [ false, %22 ], [ %35, %31 ]
  %.not.i = icmp ne i32 %.pre.i, %38
  %brmerge.i = select i1 %.not.i, i1 true, i1 %39
  br i1 %brmerge.i, label %.loopexit.split.loop.exit31.i, label %40, !prof !37

40:                                               ; preds = %36
  %41 = add i64 %.02233.i, 1
  %exitcond.not.i = icmp eq i64 %41, %18
  br i1 %exitcond.not.i, label %.thread45, label %22, !llvm.loop !38

.loopexit.split.loop.exit31.i:                    ; preds = %36
  br i1 %.not.i, label %.backedge.backedge, label %find_entry.exit, !prof !40

.backedge.backedge:                               ; preds = %.loopexit.split.loop.exit31.i, %.thread.i, %45, %find_entry.exit
  br label %.backedge

find_entry.exit:                                  ; preds = %.thread.i, %.loopexit.split.loop.exit31.i
  switch i64 %.02233.i, label %.loopexit [
    i64 -2, label %.backedge.backedge
    i64 -1, label %.thread45
  ], !prof !49

.thread45:                                        ; preds = %find_entry.exit, %17, %40
  %42 = getelementptr inbounds nuw i8, ptr %0, i64 16
  %43 = load i64, ptr %42, align 8, !tbaa !26
  %44 = add i64 %43, 1
  store i64 %44, ptr %42, align 8, !tbaa !26
  br label %51

45:                                               ; preds = %.backedge
  %46 = call fastcc i64 @find_table_bin_ptr_and_reserve(ptr noundef nonnull %0, i64 %9, i64 noundef %1, ptr noundef %4)
  %47 = icmp eq i64 %46, -2
  br i1 %47, label %.backedge.backedge, label %48, !prof !50

48:                                               ; preds = %45
  %49 = icmp eq i64 %46, -1
  %50 = add i64 %46, -2
  br i1 %49, label %._crit_edge, label %.loopexit

._crit_edge:                                      ; preds = %48
  %.pre = load i64, ptr %4, align 8, !tbaa !46
  br label %51

51:                                               ; preds = %._crit_edge, %.thread45
  %52 = phi i64 [ %.pre, %._crit_edge ], [ -1, %.thread45 ]
  %53 = load i64, ptr %11, align 8, !tbaa !30
  %54 = add i64 %53, 1
  store i64 %54, ptr %11, align 8, !tbaa !30
  %55 = load ptr, ptr %12, align 8, !tbaa !25
  %56 = getelementptr %struct.parser_st_table_entry, ptr %55, i64 %53
  store i64 %9, ptr %56, align 8, !tbaa !32
  %57 = getelementptr inbounds nuw i8, ptr %56, i64 8
  store i64 %1, ptr %57, align 8, !tbaa !34
  %58 = getelementptr inbounds nuw i8, ptr %56, i64 16
  store i64 %2, ptr %58, align 8, !tbaa !48
  %.not = icmp eq i64 %52, -1
  br i1 %.not, label %set_bin.exit, label %59

59:                                               ; preds = %51
  %60 = load ptr, ptr %10, align 8, !tbaa !23
  %61 = getelementptr i8, ptr %0, i64 2
  %.val34 = load i8, ptr %61, align 2, !tbaa !22
  %62 = add i64 %53, 2
  switch i8 %.val34, label %72 [
    i8 0, label %63
    i8 1, label %66
    i8 2, label %69
  ]

63:                                               ; preds = %59
  %64 = trunc i64 %62 to i8
  %65 = getelementptr i8, ptr %60, i64 %52
  store i8 %64, ptr %65, align 1, !tbaa !42
  br label %set_bin.exit

66:                                               ; preds = %59
  %67 = trunc i64 %62 to i16
  %68 = getelementptr i16, ptr %60, i64 %52
  store i16 %67, ptr %68, align 2, !tbaa !43
  br label %set_bin.exit

69:                                               ; preds = %59
  %70 = trunc i64 %62 to i32
  %71 = getelementptr i32, ptr %60, i64 %52
  store i32 %70, ptr %71, align 4, !tbaa !45
  br label %set_bin.exit

72:                                               ; preds = %59
  %73 = getelementptr i64, ptr %60, i64 %52
  store i64 %62, ptr %73, align 8, !tbaa !46
  br label %set_bin.exit

.loopexit:                                        ; preds = %find_entry.exit, %48
  %.03144 = phi i64 [ %50, %48 ], [ %.02233.i, %find_entry.exit ]
  %74 = load ptr, ptr %12, align 8, !tbaa !25
  %75 = getelementptr %struct.parser_st_table_entry, ptr %74, i64 %.03144, i32 2
  store i64 %2, ptr %75, align 8, !tbaa !48
  br label %set_bin.exit

set_bin.exit:                                     ; preds = %72, %69, %66, %63, %51, %.loopexit
  %.030 = phi i32 [ 1, %.loopexit ], [ 0, %51 ], [ 0, %63 ], [ 0, %66 ], [ 0, %69 ], [ 0, %72 ]
  call void @llvm.lifetime.end.p0(i64 8, ptr nonnull %4) #25
  ret i32 %.030
}